; Function Attrs: mustprogress uwtable
define hidden void @_ZN6Assimp12PbrtExporter12WriteCamerasEv(ptr noundef nonnull align 8 dereferenceable(592) %0) local_unnamed_addr #3 align 2 {
  %2 = getelementptr inbounds nuw i8, ptr %0, i64 32
  %3 = tail call noundef nonnull align 8 dereferenceable(8) ptr @_ZSt16__ostream_insertIcSt11char_traitsIcEERSt13basic_ostreamIT_T0_ES6_PKS3_l(ptr noundef nonnull align 8 dereferenceable(8) %2, ptr noundef nonnull @.str.3, i64 noundef 1)
  %4 = tail call noundef nonnull align 8 dereferenceable(8) ptr @_ZSt16__ostream_insertIcSt11char_traitsIcEERSt13basic_ostreamIT_T0_ES6_PKS3_l(ptr noundef nonnull align 8 dereferenceable(8) %2, ptr noundef nonnull @.str.19, i64 noundef 32)
  %5 = tail call noundef nonnull align 8 dereferenceable(8) ptr @_ZSt16__ostream_insertIcSt11char_traitsIcEERSt13basic_ostreamIT_T0_ES6_PKS3_l(ptr noundef nonnull align 8 dereferenceable(8) %2, ptr noundef nonnull @.str.20, i64 noundef 11)
  %6 = getelementptr inbounds nuw i8, ptr %0, i64 8
  %7 = load ptr, ptr %6, align 8
  %8 = getelementptr inbounds nuw i8, ptr %7, i64 96
  %9 = load i32, ptr %8, align 8
  %10 = zext i32 %9 to i64
  %11 = tail call noundef nonnull align 8 dereferenceable(8) ptr @_ZNSo9_M_insertImEERSoT_(ptr noundef nonnull align 8 dereferenceable(8) %2, i64 noundef %10)
  %12 = tail call noundef nonnull align 8 dereferenceable(8) ptr @_ZSt16__ostream_insertIcSt11char_traitsIcEERSt13basic_ostreamIT_T0_ES6_PKS3_l(ptr noundef nonnull align 8 dereferenceable(8) %11, ptr noundef nonnull @.str.21, i64 noundef 9)
  %13 = load ptr, ptr %6, align 8
  %14 = getelementptr inbounds nuw i8, ptr %13, i64 96
  %15 = load i32, ptr %14, align 8
  switch i32 %15, label %18 [
    i32 0, label %16
    i32 1, label %.lr.ph.preheader
  ]

16:                                               ; preds = %1
  %17 = tail call noundef nonnull align 8 dereferenceable(8) ptr @_ZSt16__ostream_insertIcSt11char_traitsIcEERSt13basic_ostreamIT_T0_ES6_PKS3_l(ptr noundef nonnull align 8 dereferenceable(8) @_ZSt4cerr, ptr noundef nonnull @.str.22, i64 noundef 41)
  br label %.loopexit

18:                                               ; preds = %1
  %19 = tail call noundef nonnull align 8 dereferenceable(8) ptr @_ZSt16__ostream_insertIcSt11char_traitsIcEERSt13basic_ostreamIT_T0_ES6_PKS3_l(ptr noundef nonnull align 8 dereferenceable(8) @_ZSt4cerr, ptr noundef nonnull @.str.23, i64 noundef 73)
  %.pre = load ptr, ptr %6, align 8
  %.phi.trans.insert = getelementptr inbounds nuw i8, ptr %.pre, i64 96
  %.pre5 = load i32, ptr %.phi.trans.insert, align 8
  %20 = icmp eq i32 %.pre5, 0
  br i1 %20, label %.loopexit, label %.lr.ph.preheader

.lr.ph.preheader:                                 ; preds = %1, %18
  br label %.lr.ph

.lr.ph:                                           ; preds = %.lr.ph.preheader, %.lr.ph
  %.04 = phi i32 [ %21, %.lr.ph ], [ 0, %.lr.ph.preheader ]
  tail call void @_ZN6Assimp12PbrtExporter11WriteCameraEi(ptr noundef nonnull align 8 dereferenceable(592) %0, i32 noundef %.04)
  %21 = add nuw i32 %.04, 1
  %22 = load ptr, ptr %6, align 8
  %23 = getelementptr inbounds nuw i8, ptr %22, i64 96
  %24 = load i32, ptr %23, align 8
  %25 = icmp ult i32 %21, %24
  br i1 %25, label %.lr.ph, label %.loopexit, !llvm.loop !40

.loopexit:                                        ; preds = %.lr.ph, %18, %16
  ret void
}